; ModuleID = '13/765.c'
source_filename = "13/765.c"
target datalayout = "e-m:e-p270:32:32-p271:32:32-p272:64:64-i64:64-f80:128-n8:16:32:64-S128"
target triple = "x86_64-pc-linux-gnu"

@.str = private unnamed_addr constant [3 x i8] c"%d\00", align 1
@.str.1 = private unnamed_addr constant [4 x i8] c" %d\00", align 1

; Function Attrs: noinline nounwind uwtable
define dso_local i32 @main() #0 {
  %1 = alloca i32, align 4
  %2 = alloca i32, align 4
  %3 = alloca i32*, align 8
  %4 = alloca i32*, align 8
  %5 = alloca i32*, align 8
  store i32 0, i32* %1, align 4
  %6 = call i32 (i8*, ...) @__isoc99_scanf(i8* getelementptr inbounds ([3 x i8], [3 x i8]* @.str, i64 0, i64 0), i32* %2)
  %7 = load i32, i32* %2, align 4
  %8 = sext i32 %7 to i64
  %9 = call noalias i8* @calloc(i64 %8, i64 4) #3
  %10 = bitcast i8* %9 to i32*
  store i32* %10, i32** %3, align 8
  %11 = load i32*, i32** %3, align 8
  store i32* %11, i32** %5, align 8
  %12 = load i32*, i32** %5, align 8
  store i32* %12, i32** %3, align 8
  br label %13

13:                                               ; preds = %23, %0
  %14 = load i32*, i32** %3, align 8
  %15 = load i32*, i32** %5, align 8
  %16 = load i32, i32* %2, align 4
  %17 = sext i32 %16 to i64
  %18 = getelementptr inbounds i32, i32* %15, i64 %17
  %19 = icmp ult i32* %14, %18
  br i1 %19, label %20, label %26

20:                                               ; preds = %13
  %21 = load i32*, i32** %3, align 8
  %22 = call i32 (i8*, ...) @__isoc99_scanf(i8* getelementptr inbounds ([3 x i8], [3 x i8]* @.str, i64 0, i64 0), i32* %21)
  br label %23

23:                                               ; preds = %20
  %24 = load i32*, i32** %3, align 8
  %25 = getelementptr inbounds i32, i32* %24, i32 1
  store i32* %25, i32** %3, align 8
  br label %13

26:                                               ; preds = %13
  %27 = load i32*, i32** %5, align 8
  store i32* %27, i32** %3, align 8
  %28 = load i32*, i32** %3, align 8
  %29 = load i32, i32* %28, align 4
  %30 = call i32 (i8*, ...) @printf(i8* getelementptr inbounds ([3 x i8], [3 x i8]* @.str, i64 0, i64 0), i32 %29)
  %31 = load i32*, i32** %3, align 8
  %32 = getelementptr inbounds i32, i32* %31, i32 1
  store i32* %32, i32** %3, align 8
  br label %33

33:                                               ; preds = %62, %26
  %34 = load i32*, i32** %3, align 8
  %35 = load i32*, i32** %5, align 8
  %36 = load i32, i32* %2, align 4
  %37 = sext i32 %36 to i64
  %38 = getelementptr inbounds i32, i32* %35, i64 %37
  %39 = icmp ult i32* %34, %38
  br i1 %39, label %40, label %65

40:                                               ; preds = %33
  %41 = load i32*, i32** %5, align 8
  store i32* %41, i32** %4, align 8
  br label %42

42:                                               ; preds = %54, %40
  %43 = load i32*, i32** %4, align 8
  %44 = load i32*, i32** %3, align 8
  %45 = icmp ult i32* %43, %44
  br i1 %45, label %46, label %57

46:                                               ; preds = %42
  %47 = load i32*, i32** %4, align 8
  %48 = load i32, i32* %47, align 4
  %49 = load i32*, i32** %3, align 8
  %50 = load i32, i32* %49, align 4
  %51 = icmp eq i32 %48, %50
  br i1 %51, label %52, label %53

52:                                               ; preds = %46
  br label %61

53:                                               ; preds = %46
  br label %54

54:                                               ; preds = %53
  %55 = load i32*, i32** %4, align 8
  %56 = getelementptr inbounds i32, i32* %55, i32 1
  store i32* %56, i32** %4, align 8
  br label %42

57:                                               ; preds = %42
  %58 = load i32*, i32** %3, align 8
  %59 = load i32, i32* %58, align 4
  %60 = call i32 (i8*, ...) @printf(i8* getelementptr inbounds ([4 x i8], [4 x i8]* @.str.1, i64 0, i64 0), i32 %59)
  br label %61

61:                                               ; preds = %57, %52
  br label %62

62:                                               ; preds = %61
  %63 = load i32*, i32** %3, align 8
  %64 = getelementptr inbounds i32, i32* %63, i32 1
  store i32* %64, i32** %3, align 8
  br label %33

65:                                               ; preds = %33
  ret i32 0
}

declare dso_local i32 @__isoc99_scanf(i8*, ...) #1

; Function Attrs: nounwind
declare dso_local noalias i8* @calloc(i64, i64) #2

declare dso_local i32 @printf(i8*, ...) #1


!llvm.module.flags = !{!0}
!llvm.ident = !{!1}

!0 = !{i32 1, !"wchar_size", i32 4}
!1 = !{!"clang version 10.0.0-4ubuntu1 "}
