; ModuleID = 'source-C-CXX/12/765.c'
source_filename = "source-C-CXX/12/765.c"
target datalayout = "e-m:e-p270:32:32-p271:32:32-p272:64:64-i64:64-f80:128-n8:16:32:64-S128"
target triple = "x86_64-pc-linux-gnu"

@.str = private unnamed_addr constant [3 x i8] c"%d\00", align 1
@.str.1 = private unnamed_addr constant [4 x i8] c" %d\00", align 1

; Function Attrs: nofree nounwind sspstrong uwtable
define dso_local i32 @main() local_unnamed_addr #0 {
  %1 = alloca i32, align 4
  %2 = bitcast i32* %1 to i8*
  call void @llvm.lifetime.start.p0i8(i64 4, i8* nonnull %2) #4
  %3 = call i32 (i8*, ...) @__isoc99_scanf(i8* getelementptr inbounds ([3 x i8], [3 x i8]* @.str, i64 0, i64 0), i32* nonnull %1)
  %4 = load i32, i32* %1, align 4, !tbaa !5
  %5 = sext i32 %4 to i64
  %6 = call noalias align 16 i8* @calloc(i64 %5, i64 4) #4
  %7 = bitcast i8* %6 to i32*
  %8 = getelementptr inbounds i32, i32* %7, i64 %5
  %9 = icmp ugt i32* %8, %7
  br i1 %9, label %10, label %20

10:                                               ; preds = %0, %10
  %11 = phi i32* [ %13, %10 ], [ %7, %0 ]
  %12 = call i32 (i8*, ...) @__isoc99_scanf(i8* getelementptr inbounds ([3 x i8], [3 x i8]* @.str, i64 0, i64 0), i32* %11)
  %13 = getelementptr inbounds i32, i32* %11, i64 1
  %14 = load i32, i32* %1, align 4, !tbaa !5
  %15 = sext i32 %14 to i64
  %16 = getelementptr inbounds i32, i32* %7, i64 %15
  %17 = icmp ult i32* %13, %16
  br i1 %17, label %10, label %18, !llvm.loop !9

18:                                               ; preds = %10
  %19 = load i32, i32* %7, align 16, !tbaa !5
  br label %20

20:                                               ; preds = %18, %0
  %21 = phi i32 [ %19, %18 ], [ 0, %0 ]
  %22 = call i32 (i8*, ...) @printf(i8* nonnull dereferenceable(1) getelementptr inbounds ([3 x i8], [3 x i8]* @.str, i64 0, i64 0), i32 %21)
  %23 = load i32, i32* %1, align 4, !tbaa !5
  %24 = icmp sgt i32 %23, 1
  br i1 %24, label %25, label %50

25:                                               ; preds = %20
  %26 = getelementptr inbounds i32, i32* %7, i64 1
  br label %27

27:                                               ; preds = %25, %44
  %28 = phi i32 [ %45, %44 ], [ %23, %25 ]
  %29 = phi i32* [ %46, %44 ], [ %26, %25 ]
  %30 = icmp ugt i32* %29, %7
  br i1 %30, label %31, label %40

31:                                               ; preds = %27
  %32 = load i32, i32* %29, align 4, !tbaa !5
  br label %35

33:                                               ; preds = %35
  %34 = icmp ult i32* %39, %29
  br i1 %34, label %35, label %40, !llvm.loop !11

35:                                               ; preds = %31, %33
  %36 = phi i32* [ %7, %31 ], [ %39, %33 ]
  %37 = load i32, i32* %36, align 4, !tbaa !5
  %38 = icmp eq i32 %37, %32
  %39 = getelementptr inbounds i32, i32* %36, i64 1
  br i1 %38, label %44, label %33

40:                                               ; preds = %33, %27
  %41 = load i32, i32* %29, align 4, !tbaa !5
  %42 = call i32 (i8*, ...) @printf(i8* nonnull dereferenceable(1) getelementptr inbounds ([4 x i8], [4 x i8]* @.str.1, i64 0, i64 0), i32 %41)
  %43 = load i32, i32* %1, align 4, !tbaa !5
  br label %44

44:                                               ; preds = %35, %40
  %45 = phi i32 [ %43, %40 ], [ %28, %35 ]
  %46 = getelementptr inbounds i32, i32* %29, i64 1
  %47 = sext i32 %45 to i64
  %48 = getelementptr inbounds i32, i32* %7, i64 %47
  %49 = icmp ult i32* %46, %48
  br i1 %49, label %27, label %50, !llvm.loop !12

50:                                               ; preds = %44, %20
  call void @llvm.lifetime.end.p0i8(i64 4, i8* nonnull %2) #4
  ret i32 0
}

; Function Attrs: argmemonly mustprogress nofree nosync nounwind willreturn
declare void @llvm.lifetime.start.p0i8(i64 immarg, i8* nocapture) #1

; Function Attrs: nofree nounwind
declare noundef i32 @__isoc99_scanf(i8* nocapture noundef readonly, ...) local_unnamed_addr #2

; Function Attrs: mustprogress nofree nounwind willreturn
declare noalias noundef align 16 i8* @calloc(i64 noundef, i64 noundef) local_unnamed_addr #3

; Function Attrs: nofree nounwind
declare noundef i32 @printf(i8* nocapture noundef readonly, ...) local_unnamed_addr #2

; Function Attrs: argmemonly mustprogress nofree nosync nounwind willreturn
declare void @llvm.lifetime.end.p0i8(i64 immarg, i8* nocapture) #1


!llvm.module.flags = !{!0, !1, !2, !3}
!llvm.ident = !{!4}

!0 = !{i32 1, !"wchar_size", i32 4}
!1 = !{i32 7, !"PIC Level", i32 2}
!2 = !{i32 7, !"PIE Level", i32 2}
!3 = !{i32 7, !"uwtable", i32 1}
!4 = !{!"clang version 13.0.0"}
!5 = !{!6, !6, i64 0}
!6 = !{!"int", !7, i64 0}
!7 = !{!"omnipotent char", !8, i64 0}
!8 = !{!"Simple C/C++ TBAA"}
!9 = distinct !{!9, !10}
!10 = !{!"llvm.loop.mustprogress"}
!11 = distinct !{!11, !10}
!12 = distinct !{!12, !10}
